; Function Attrs: mustprogress nofree norecurse nosync nounwind willreturn memory(read, argmem: readwrite, inaccessiblemem: none) uwtable
define void @_Z5Make1P3posiPK8moveType(ptr nocapture noundef %0, i32 noundef %1, ptr nocapture noundef readonly %2) local_unnamed_addr #4 {
  %4 = getelementptr inbounds nuw i8, ptr %0, i64 472
  %5 = sext i32 %1 to i64
  %6 = getelementptr inbounds [50 x i32], ptr %4, i64 0, i64 %5
  %7 = load i32, ptr %6, align 4
  %8 = add nsw i32 %1, -1
  %9 = sext i32 %8 to i64
  %10 = getelementptr inbounds [50 x i32], ptr %4, i64 0, i64 %9
  store i32 %7, ptr %10, align 4
  %11 = add nsw i32 %7, 1
  %12 = and i32 %11, 3
  %13 = load i32, ptr %2, align 4
  %14 = getelementptr inbounds nuw i8, ptr %2, i64 4
  %15 = load i32, ptr %14, align 4
  %16 = sext i32 %15 to i64
  %17 = getelementptr inbounds [16 x i16], ptr @bitMapRank, i64 0, i64 %16
  %18 = load i16, ptr %17, align 2
  %19 = xor i16 %18, -1
  %20 = zext nneg i32 %12 to i64
  %21 = sext i32 %13 to i64
  %22 = getelementptr inbounds [4 x [4 x i16]], ptr %0, i64 0, i64 %20, i64 %21
  %23 = load i16, ptr %22, align 2
  %24 = and i16 %23, %19
  store i16 %24, ptr %22, align 2
  %25 = load i16, ptr %17, align 2
  %26 = getelementptr inbounds nuw i8, ptr %0, i64 32
  %27 = getelementptr inbounds [4 x i16], ptr %26, i64 0, i64 %21
  %28 = load i16, ptr %27, align 2
  %29 = xor i16 %28, %25
  store i16 %29, ptr %27, align 2
  %30 = getelementptr inbounds [4 x i32], ptr @_ZL9handDelta, i64 0, i64 %21
  %31 = load i32, ptr %30, align 4
  %32 = getelementptr inbounds nuw i8, ptr %0, i64 56
  %33 = getelementptr inbounds [4 x i32], ptr %32, i64 0, i64 %20
  %34 = load i32, ptr %33, align 4
  %35 = sub nsw i32 %34, %31
  store i32 %35, ptr %33, align 4
  %36 = getelementptr inbounds nuw i8, ptr %0, i64 40
  %37 = getelementptr inbounds [4 x [4 x i8]], ptr %36, i64 0, i64 %20, i64 %21
  %38 = load i8, ptr %37, align 1
  %39 = add i8 %38, -1
  store i8 %39, ptr %37, align 1
  ret void
}